target datalayout = "e-m:e-p270:32:32-p271:32:32-p272:64:64-i64:64-i128:128-f80:128-n8:16:32:64-S128"
target triple = "x86_64-pc-linux-gnu"

%struct.PyDateTime_CAPI = type { ptr, ptr, ptr, ptr, ptr, ptr, ptr, ptr, ptr, ptr, ptr, ptr, ptr, ptr, ptr }

@PyDateTimeAPI = internal global ptr null, align 8
@.str.25 = private unnamed_addr constant [5 x i8] c"piii\00", align 1

; Function Attrs: nounwind uwtable
define internal ptr @get_delta_fromdsu(ptr noundef %0, ptr noundef %1) #0 {
  %3 = alloca ptr, align 8
  %4 = alloca ptr, align 8
  %5 = alloca ptr, align 8
  %6 = alloca ptr, align 8
  %7 = alloca i32, align 4
  %8 = alloca i32, align 4
  %9 = alloca i32, align 4
  %10 = alloca i32, align 4
  %11 = alloca i32, align 4
  store ptr %0, ptr %4, align 8, !tbaa !3
  store ptr %1, ptr %5, align 8, !tbaa !3
  call void @llvm.lifetime.start.p0(i64 8, ptr %6) #6
  store ptr null, ptr %6, align 8, !tbaa !3
  call void @llvm.lifetime.start.p0(i64 4, ptr %7) #6
  call void @llvm.lifetime.start.p0(i64 4, ptr %8) #6
  call void @llvm.lifetime.start.p0(i64 4, ptr %9) #6
  call void @llvm.lifetime.start.p0(i64 4, ptr %10) #6
  %12 = load ptr, ptr %5, align 8, !tbaa !3
  %13 = call i32 (ptr, ptr, ...) @PyArg_ParseTuple(ptr noundef %12, ptr noundef @.str.25, ptr noundef %7, ptr noundef %8, ptr noundef %9, ptr noundef %10)
  %14 = icmp ne i32 %13, 0
  br i1 %14, label %16, label %15

15:                                               ; preds = %2
  store ptr null, ptr %3, align 8
  store i32 1, ptr %11, align 4
  br label %43

16:                                               ; preds = %2
  %17 = load i32, ptr %7, align 4, !tbaa !9
  %18 = icmp ne i32 %17, 0
  br i1 %18, label %19, label %30

19:                                               ; preds = %16
  %20 = load ptr, ptr @PyDateTimeAPI, align 8, !tbaa !24
  %21 = getelementptr inbounds nuw %struct.PyDateTime_CAPI, ptr %20, i32 0, i32 9
  %22 = load ptr, ptr %21, align 8, !tbaa !36
  %23 = load i32, ptr %8, align 4, !tbaa !9
  %24 = load i32, ptr %9, align 4, !tbaa !9
  %25 = load i32, ptr %10, align 4, !tbaa !9
  %26 = load ptr, ptr @PyDateTimeAPI, align 8, !tbaa !24
  %27 = getelementptr inbounds nuw %struct.PyDateTime_CAPI, ptr %26, i32 0, i32 3
  %28 = load ptr, ptr %27, align 8, !tbaa !28
  %29 = call ptr %22(i32 noundef %23, i32 noundef %24, i32 noundef %25, i32 noundef 1, ptr noundef %28)
  store ptr %29, ptr %6, align 8, !tbaa !3
  br label %41

30:                                               ; preds = %16
  %31 = load ptr, ptr @PyDateTimeAPI, align 8, !tbaa !24
  %32 = getelementptr inbounds nuw %struct.PyDateTime_CAPI, ptr %31, i32 0, i32 9
  %33 = load ptr, ptr %32, align 8, !tbaa !36
  %34 = load i32, ptr %8, align 4, !tbaa !9
  %35 = load i32, ptr %9, align 4, !tbaa !9
  %36 = load i32, ptr %10, align 4, !tbaa !9
  %37 = load ptr, ptr @PyDateTimeAPI, align 8, !tbaa !24
  %38 = getelementptr inbounds nuw %struct.PyDateTime_CAPI, ptr %37, i32 0, i32 3
  %39 = load ptr, ptr %38, align 8, !tbaa !28
  %40 = call ptr %33(i32 noundef %34, i32 noundef %35, i32 noundef %36, i32 noundef 1, ptr noundef %39)
  store ptr %40, ptr %6, align 8, !tbaa !3
  br label %41

41:                                               ; preds = %30, %19
  %42 = load ptr, ptr %6, align 8, !tbaa !3
  store ptr %42, ptr %3, align 8
  store i32 1, ptr %11, align 4
  br label %43

43:                                               ; preds = %41, %15
  call void @llvm.lifetime.end.p0(i64 4, ptr %10) #6
  call void @llvm.lifetime.end.p0(i64 4, ptr %9) #6
  call void @llvm.lifetime.end.p0(i64 4, ptr %8) #6
  call void @llvm.lifetime.end.p0(i64 4, ptr %7) #6
  call void @llvm.lifetime.end.p0(i64 8, ptr %6) #6
  %44 = load ptr, ptr %3, align 8
  ret ptr %44
}